; Function Attrs: mustprogress nofree norecurse nosync nounwind willreturn memory(read, inaccessiblemem: none) uwtable
define noundef i64 @_ZNK6casadi13BSplineCommon4sz_wEv(ptr nocapture noundef nonnull readonly align 8 dereferenceable(232) %0) unnamed_addr #8 align 2 {
  %2 = getelementptr inbounds i8, ptr %0, i64 112
  %3 = getelementptr inbounds i8, ptr %0, i64 120
  %4 = load ptr, ptr %3, align 8
  %5 = load ptr, ptr %2, align 8
  %6 = ptrtoint ptr %4 to i64
  %7 = ptrtoint ptr %5 to i64
  %8 = sub i64 %6, %7
  %9 = ashr exact i64 %8, 3
  %10 = add nsw i64 %9, -1
  %11 = icmp sgt i64 %9, 1
  br i1 %11, label %.lr.ph.i, label %_ZN6casadi13BSplineCommon3n_wERKSt6vectorIxSaIxEE.exit

.lr.ph.i:                                         ; preds = %1, %.lr.ph.i
  %.015.i = phi i64 [ %16, %.lr.ph.i ], [ 0, %1 ]
  %.01214.i = phi i64 [ %15, %.lr.ph.i ], [ 0, %1 ]
  %12 = getelementptr inbounds i64, ptr %5, i64 %.015.i
  %13 = load i64, ptr %12, align 8
  %14 = add i64 %.01214.i, 1
  %15 = add i64 %14, %13
  %16 = add nuw nsw i64 %.015.i, 1
  %exitcond.not.i = icmp eq i64 %16, %10
  br i1 %exitcond.not.i, label %_ZN6casadi13BSplineCommon3n_wERKSt6vectorIxSaIxEE.exit, label %.lr.ph.i, !llvm.loop !15

_ZN6casadi13BSplineCommon3n_wERKSt6vectorIxSaIxEE.exit: ; preds = %.lr.ph.i, %1
  %.012.lcssa.i = phi i64 [ 0, %1 ], [ %15, %.lr.ph.i ]
  %17 = getelementptr inbounds i64, ptr %5, i64 %10
  %18 = load i64, ptr %17, align 8
  %19 = shl nsw i64 %18, 1
  %20 = add nsw i64 %9, 2
  %21 = add i64 %20, %.012.lcssa.i
  %22 = add i64 %21, %19
  ret i64 %22
}